target datalayout = "e-m:e-p270:32:32-p271:32:32-p272:64:64-i64:64-i128:128-f80:128-n8:16:32:64-S128"
target triple = "x86_64-pc-linux-gnu"

%struct.compression_type = type { i32, ptr, ptr, ptr, i8 }

; Function Attrs: null_pointer_is_valid sspstrong uwtable
define ptr @wtap_get_all_output_compression_type_names_list() #0 {
  %1 = alloca ptr, align 8
  %2 = alloca ptr, align 8
  call void @llvm.lifetime.start.p0(i64 8, ptr %1) #14
  store ptr null, ptr %1, align 8
  call void @llvm.lifetime.start.p0(i64 8, ptr %2) #14
  store ptr @compression_types, ptr %2, align 8
  br label %3

3:                                                ; preds = %21, %0
  %4 = load ptr, ptr %2, align 8
  %5 = getelementptr inbounds nuw %struct.compression_type, ptr %4, i32 0, i32 0
  %6 = load i32, ptr %5, align 8
  %7 = icmp ne i32 %6, 0
  br i1 %7, label %9, label %8

8:                                                ; preds = %3
  call void @llvm.lifetime.end.p0(i64 8, ptr %2) #14
  br label %24

9:                                                ; preds = %3
  %10 = load ptr, ptr %2, align 8
  %11 = getelementptr inbounds nuw %struct.compression_type, ptr %10, i32 0, i32 4
  %12 = load i8, ptr %11, align 8, !range !9, !noundef !10
  %13 = trunc i8 %12 to i1
  br i1 %13, label %14, label %20

14:                                               ; preds = %9
  %15 = load ptr, ptr %1, align 8
  %16 = load ptr, ptr %2, align 8
  %17 = getelementptr inbounds nuw %struct.compression_type, ptr %16, i32 0, i32 3
  %18 = load ptr, ptr %17, align 8
  %19 = call ptr @g_slist_prepend(ptr noundef %15, ptr noundef %18)
  store ptr %19, ptr %1, align 8
  br label %20

20:                                               ; preds = %14, %9
  br label %21

21:                                               ; preds = %20
  %22 = load ptr, ptr %2, align 8
  %23 = getelementptr %struct.compression_type, ptr %22, i32 1
  store ptr %23, ptr %2, align 8
  br label %3, !llvm.loop !16

24:                                               ; preds = %8
  %25 = load ptr, ptr %1, align 8
  call void @llvm.lifetime.end.p0(i64 8, ptr %1) #14
  ret ptr %25
}