; Function Attrs: null_pointer_is_valid sspstrong uwtable
define ptr @wtap_get_all_output_compression_type_names_list() local_unnamed_addr #0 {
  br label %2

1:                                                ; preds = %10
  ret ptr %.1

2:                                                ; preds = %0, %10
  %.08 = phi ptr [ @compression_types, %0 ], [ %11, %10 ]
  %.067 = phi ptr [ null, %0 ], [ %.1, %10 ]
  %3 = getelementptr inbounds nuw i8, ptr %.08, i64 32
  %4 = load i8, ptr %3, align 8, !range !9, !noundef !10
  %5 = trunc nuw i8 %4 to i1
  br i1 %5, label %6, label %10

6:                                                ; preds = %2
  %7 = getelementptr inbounds nuw i8, ptr %.08, i64 24
  %8 = load ptr, ptr %7, align 8
  %9 = tail call ptr @g_slist_prepend(ptr noundef %.067, ptr noundef %8)
  br label %10

10:                                               ; preds = %2, %6
  %.1 = phi ptr [ %9, %6 ], [ %.067, %2 ]
  %11 = getelementptr i8, ptr %.08, i64 40
  %12 = load i32, ptr %11, align 8
  %.not = icmp eq i32 %12, 0
  br i1 %.not, label %1, label %2, !llvm.loop !16
}